(dp0
VM-CS
p1
I116
sVE-IJ
p2
I112
sVB-CC
p3
I84
sVE-PNI
p4
I81
sVE-PNQ
p5
I77
sVE-PNP
p6
I43
sVS-PER
p7
I88
sVS-PU
p8
I3
sVM-CD
p9
I24
sVM-PER
p10
I28
sVM-ORG
p11
I42
sVS-DSP
p12
I8
sVE-M
p13
I72
sVB-OD
p14
I68
sVE-NR
p15
I66
sVE-NN
p16
I1
sVE-P
p17
I46
sVM-PU
p18
I87
sVB-DSP
p19
I105
sVM-P
p20
I101
sVB-M
p21
I71
sVM-M
p22
I97
sVB-P
p23
I47
sVE-LC
p24
I50
sVS-OD
p25
I59
sVB-DV
p26
I75
sVB-DT
p27
I55
sVB-LC
p28
I51
sVM-CC
p29
I120
sVS-P
p30
I14
sVS-M
p31
I16
sVE-PU
p32
I79
sVE-AD
p33
I10
sVM-ADQ
p34
I94
sVE-LOC
p35
I12
sVB-AD
p36
I11
sVM-VV
p37
I39
sVM-IJ
p38
I121
sVB-ETC
p39
I103
sVB-IJ
p40
I113
sVB-VV
p41
I4
sVM-VA
p42
I83
sVM-NT
p43
I32
sVE-PER
p44
I30
sVM-NR
p45
I45
sVS-JJ
p46
I35
sVM-SP
p47
I117
sVE-DV
p48
I76
sVE-DT
p49
I56
sVE-ORG
p50
I36
sVM-NN
p51
I9
sVS-BA
p52
I63
sVE-VV
p53
I5
sVB-URL
p54
I107
sVS-PNQ
p55
I86
sVS-PNP
p56
I29
sVM-URL
p57
I90
sVS-IJ
p58
I110
sVS-PNI
p59
I62
sVE-VA
p60
I40
sVB-ADQ
p61
I73
sVS-AS
p62
I26
sVB-NN
p63
I2
sVB-ORG
p64
I37
sVE-MOD
p65
I99
sVS-VA
p66
I48
sVE-NT
p67
I20
sVS-AD
p68
I7
sVE-OD
p69
I69
sVB-NT
p70
I21
sVB-VA
p71
I41
sVB-CD
p72
I22
sVE-DSP
p73
I106
sVS-ETC
p74
I60
sVB-CS
p75
I57
sVE-MV
p76
I53
sVS-LC
p77
I25
sVB-SP
p78
I95
sVM-MOD
p79
I91
sVB-NR
p80
I67
sVM-LC
p81
I122
sVS-DT
p82
I34
sVS-DV
p83
I70
sVB-EML
p84
I118
sVM-PNQ
p85
I102
sVS-ORG
p86
I111
sVS-SP
p87
I49
sVS-LOC
p88
I65
sVB-PU
p89
I80
sVE-EML
p90
I119
sVS-CS
p91
I89
sVM-OD
p92
I92
sVS-CC
p93
I38
sVS-CD
p94
I19
sVB-LOC
p95
I13
sVB-MOD
p96
I100
sVS-NT
p97
I93
sVE-SP
p98
I96
sVB-JJ
p99
I18
sVS-NN
p100
I15
sVM-EML
p101
I98
sVB-BEI
p102
I114
sVE-URL
p103
I108
sVM-LOC
p104
I27
sVM-AD
p105
I64
sVS-BEI
p106
I52
sVM-JJ
p107
I61
sVB-PER
p108
I31
sVB-MV
p109
I54
sVS-MV
p110
I33
sVE-ADQ
p111
I74
sVE-JJ
p112
I17
sVS-ADQ
p113
I109
sVB-PNP
p114
I44
sVB-PNQ
p115
I78
sVE-CC
p116
I85
sVS-VV
p117
I6
sVE-CD
p118
I23
sVE-ETC
p119
I104
sVE-BEI
p120
I115
sVE-CS
p121
I58
sVB-PNI
p122
I82
s.