(dp0
VM-CS
p1
I115
sVE-IJ
p2
I107
sVB-CC
p3
I84
sVE-PNI
p4
I81
sVE-PNQ
p5
I77
sVE-PNP
p6
I43
sVS-PER
p7
I88
sVS-PU
p8
I3
sVM-CD
p9
I24
sVM-PER
p10
I28
sVM-ORG
p11
I42
sVS-DSP
p12
I8
sVE-M
p13
I72
sVB-OD
p14
I68
sVE-NR
p15
I65
sVE-NN
p16
I1
sVE-P
p17
I46
sVM-PU
p18
I87
sVB-DSP
p19
I105
sVM-P
p20
I101
sVB-M
p21
I71
sVM-M
p22
I98
sVB-P
p23
I47
sVE-LC
p24
I51
sVS-OD
p25
I59
sVB-DV
p26
I75
sVB-DT
p27
I53
sVB-LC
p28
I52
sVM-CC
p29
I120
sVS-P
p30
I14
sVS-M
p31
I16
sVE-PU
p32
I79
sVE-AD
p33
I10
sVM-ADQ
p34
I94
sVE-LOC
p35
I12
sVB-AD
p36
I11
sVM-VV
p37
I39
sVM-IJ
p38
I121
sVB-ETC
p39
I103
sVB-IJ
p40
I108
sVB-VV
p41
I4
sVM-VA
p42
I83
sVM-NT
p43
I32
sVE-PER
p44
I29
sVM-NR
p45
I45
sVS-JJ
p46
I35
sVM-SP
p47
I116
sVE-DV
p48
I76
sVE-DT
p49
I54
sVE-ORG
p50
I36
sVM-NN
p51
I9
sVS-BA
p52
I63
sVE-VV
p53
I5
sVB-URL
p54
I109
sVS-PNQ
p55
I86
sVS-PNP
p56
I31
sVM-URL
p57
I91
sVS-IJ
p58
I111
sVS-PNI
p59
I62
sVE-VA
p60
I40
sVB-ADQ
p61
I73
sVS-AS
p62
I26
sVB-NN
p63
I2
sVB-ORG
p64
I37
sVE-MOD
p65
I99
sVS-VA
p66
I48
sVE-NT
p67
I20
sVS-AD
p68
I7
sVE-OD
p69
I69
sVB-NT
p70
I21
sVB-VA
p71
I41
sVB-CD
p72
I22
sVE-DSP
p73
I106
sVS-ETC
p74
I60
sVB-CS
p75
I57
sVE-MV
p76
I55
sVS-LC
p77
I25
sVB-SP
p78
I96
sVM-MOD
p79
I90
sVB-NR
p80
I66
sVS-DT
p81
I34
sVS-DV
p82
I70
sVB-EML
p83
I118
sVM-PNQ
p84
I102
sVS-ORG
p85
I117
sVS-SP
p86
I49
sVS-LOC
p87
I67
sVB-PU
p88
I80
sVE-EML
p89
I119
sVS-CS
p90
I89
sVM-OD
p91
I92
sVS-CC
p92
I38
sVS-CD
p93
I19
sVB-LOC
p94
I13
sVB-MOD
p95
I100
sVS-NT
p96
I93
sVE-SP
p97
I97
sVB-JJ
p98
I17
sVS-NN
p99
I15
sVM-EML
p100
I95
sVB-BEI
p101
I113
sVE-URL
p102
I110
sVM-LOC
p103
I27
sVM-AD
p104
I64
sVS-BEI
p105
I50
sVM-JJ
p106
I61
sVB-PER
p107
I30
sVB-MV
p108
I56
sVS-MV
p109
I33
sVE-ADQ
p110
I74
sVE-JJ
p111
I18
sVS-ADQ
p112
I112
sVB-PNP
p113
I44
sVB-PNQ
p114
I78
sVE-CC
p115
I85
sVS-VV
p116
I6
sVE-CD
p117
I23
sVE-ETC
p118
I104
sVE-BEI
p119
I114
sVE-CS
p120
I58
sVB-PNI
p121
I82
s.